; Function Attrs: inlinehint nounwind sspstrong uwtable
define internal fastcc i64 @f_add(i64 noundef %0, i64 noundef %1) unnamed_addr #3 {
  %3 = and i64 %0, 1
  %.not.i = icmp eq i64 %3, 0
  br i1 %.not.i, label %4, label %rb_integer_type_p.exit.thread

4:                                                ; preds = %2
  %5 = icmp eq i64 %0, 0
  %6 = and i64 %0, 6
  %7 = icmp ne i64 %6, 0
  %8 = or i1 %5, %7
  br i1 %8, label %rb_integer_type_p.exit.thread25, label %rb_integer_type_p.exit

rb_integer_type_p.exit:                           ; preds = %4
  %9 = inttoptr i64 %0 to ptr
  %10 = load i64, ptr %9, align 8, !tbaa !19
  %11 = and i64 %10, 31
  %12 = icmp eq i64 %11, 10
  br i1 %12, label %rb_integer_type_p.exit.thread, label %rb_integer_type_p.exit.thread25

rb_integer_type_p.exit.thread:                    ; preds = %2, %rb_integer_type_p.exit
  %13 = load i64, ptr @rb_cInteger, align 8, !tbaa !11
  %14 = tail call i32 @rb_method_basic_definition_p(i64 noundef %13, i64 noundef 43) #17
  %.not = icmp eq i32 %14, 0
  br i1 %.not, label %rb_integer_type_p.exit.thread25, label %15, !prof !20

15:                                               ; preds = %rb_integer_type_p.exit.thread
  %16 = icmp eq i64 %0, 1
  br i1 %16, label %53, label %17

17:                                               ; preds = %15
  %18 = icmp eq i64 %1, 1
  br i1 %18, label %53, label %19

19:                                               ; preds = %17
  %20 = tail call i64 @rb_int_plus(i64 noundef %0, i64 noundef %1) #17
  br label %53

rb_integer_type_p.exit.thread25:                  ; preds = %4, %rb_integer_type_p.exit.thread, %rb_integer_type_p.exit
  %21 = and i64 %0, 3
  %22 = icmp eq i64 %21, 2
  br i1 %22, label %RB_FLOAT_TYPE_P.exit.thread, label %23

23:                                               ; preds = %rb_integer_type_p.exit.thread25
  %24 = icmp eq i64 %0, 0
  %25 = and i64 %0, 7
  %26 = icmp ne i64 %25, 0
  %27 = or i1 %24, %26
  br i1 %27, label %RB_FLOAT_TYPE_P.exit.thread28, label %RB_FLOAT_TYPE_P.exit

RB_FLOAT_TYPE_P.exit:                             ; preds = %23
  %28 = inttoptr i64 %0 to ptr
  %29 = load i64, ptr %28, align 8, !tbaa !19
  %30 = and i64 %29, 31
  %31 = icmp eq i64 %30, 4
  br i1 %31, label %RB_FLOAT_TYPE_P.exit.thread, label %RB_FLOAT_TYPE_P.exit.thread28

RB_FLOAT_TYPE_P.exit.thread:                      ; preds = %rb_integer_type_p.exit.thread25, %RB_FLOAT_TYPE_P.exit
  %32 = load i64, ptr @rb_cFloat, align 8, !tbaa !11
  %33 = tail call i32 @rb_method_basic_definition_p(i64 noundef %32, i64 noundef 43) #17
  %.not20 = icmp eq i32 %33, 0
  br i1 %.not20, label %RB_FLOAT_TYPE_P.exit.thread.RB_FLOAT_TYPE_P.exit.thread28_crit_edge, label %34, !prof !20

RB_FLOAT_TYPE_P.exit.thread.RB_FLOAT_TYPE_P.exit.thread28_crit_edge: ; preds = %RB_FLOAT_TYPE_P.exit.thread
  %.pre = and i64 %0, 7
  br label %RB_FLOAT_TYPE_P.exit.thread28

34:                                               ; preds = %RB_FLOAT_TYPE_P.exit.thread
  %35 = icmp eq i64 %1, 1
  br i1 %35, label %53, label %36

36:                                               ; preds = %34
  %37 = tail call i64 @rb_float_plus(i64 noundef %0, i64 noundef %1) #17
  br label %53

RB_FLOAT_TYPE_P.exit.thread28:                    ; preds = %RB_FLOAT_TYPE_P.exit.thread.RB_FLOAT_TYPE_P.exit.thread28_crit_edge, %23, %RB_FLOAT_TYPE_P.exit
  %.pre-phi = phi i64 [ %.pre, %RB_FLOAT_TYPE_P.exit.thread.RB_FLOAT_TYPE_P.exit.thread28_crit_edge ], [ %25, %23 ], [ 0, %RB_FLOAT_TYPE_P.exit ]
  %38 = icmp eq i64 %0, 0
  %39 = icmp ne i64 %.pre-phi, 0
  %40 = or i1 %38, %39
  br i1 %40, label %rbimpl_RB_TYPE_P_fastpath.exit.thread, label %rbimpl_RB_TYPE_P_fastpath.exit

rbimpl_RB_TYPE_P_fastpath.exit:                   ; preds = %RB_FLOAT_TYPE_P.exit.thread28
  %41 = inttoptr i64 %0 to ptr
  %42 = load i64, ptr %41, align 8, !tbaa !19
  %43 = and i64 %42, 31
  %44 = icmp eq i64 %43, 15
  br i1 %44, label %45, label %rbimpl_RB_TYPE_P_fastpath.exit.thread

45:                                               ; preds = %rbimpl_RB_TYPE_P_fastpath.exit
  %46 = load i64, ptr @rb_cRational, align 8, !tbaa !11
  %47 = tail call i32 @rb_method_basic_definition_p(i64 noundef %46, i64 noundef 43) #17
  %.not21 = icmp eq i32 %47, 0
  br i1 %.not21, label %rbimpl_RB_TYPE_P_fastpath.exit.thread, label %48, !prof !20

48:                                               ; preds = %45
  %49 = icmp eq i64 %1, 1
  br i1 %49, label %53, label %50

50:                                               ; preds = %48
  %51 = tail call i64 @rb_rational_plus(i64 noundef %0, i64 noundef %1) #17
  br label %53

rbimpl_RB_TYPE_P_fastpath.exit.thread:            ; preds = %RB_FLOAT_TYPE_P.exit.thread28, %45, %rbimpl_RB_TYPE_P_fastpath.exit
  %52 = tail call i64 (i64, i64, i32, ...) @rb_funcall(i64 noundef %0, i64 noundef 43, i32 noundef 1, i64 noundef %1) #17
  br label %53

53:                                               ; preds = %48, %34, %17, %15, %rbimpl_RB_TYPE_P_fastpath.exit.thread, %50, %36, %19
  %.0 = phi i64 [ %20, %19 ], [ %37, %36 ], [ %51, %50 ], [ %52, %rbimpl_RB_TYPE_P_fastpath.exit.thread ], [ %1, %15 ], [ %0, %17 ], [ %0, %34 ], [ %0, %48 ]
  ret i64 %.0
}